; Function Attrs: mustprogress uwtable
define noalias ptr @lean_io_condvar_notify_one(ptr noundef readonly captures(none) %0, ptr noundef readnone captures(none) %1) local_unnamed_addr #0 {
  %3 = getelementptr i8, ptr %0, i64 16
  %.val = load ptr, ptr %3, align 8, !tbaa !12
  tail call void @_ZNSt18condition_variable10notify_oneEv(ptr noundef nonnull align 8 dereferenceable(48) %.val) #11
  tail call void @lean_inc_heartbeat()
  %4 = tail call noalias ptr @mi_malloc_small(i64 noundef 24) #11
  %5 = icmp eq ptr %4, null
  br i1 %5, label %6, label %_ZN4lean15io_result_mk_okEP11lean_object.exit

6:                                                ; preds = %2
  tail call void @lean_internal_panic_out_of_memory() #12
  unreachable

_ZN4lean15io_result_mk_okEP11lean_object.exit:    ; preds = %2
  %7 = getelementptr inbounds nuw i8, ptr %4, i64 4
  store i32 1, ptr %4, align 4, !tbaa !7
  store i32 131096, ptr %7, align 4
  %8 = getelementptr inbounds nuw i8, ptr %4, i64 8
  store ptr inttoptr (i64 1 to ptr), ptr %8, align 8, !tbaa !3
  %9 = getelementptr inbounds nuw i8, ptr %4, i64 16
  store ptr inttoptr (i64 1 to ptr), ptr %9, align 8, !tbaa !3
  ret ptr %4
}